target datalayout = "e-m:e-p270:32:32-p271:32:32-p272:64:64-i64:64-i128:128-f80:128-n8:16:32:64-S128"
target triple = "x86_64-pc-linux-gnu"

@.str.57 = private unnamed_addr constant [23 x i8] c"%12.4e %12.4e %12.4e \0A\00", align 1
@.str.59 = private unnamed_addr constant [34 x i8] c"                  Sensitivity 1  \00", align 1
@.str.60 = private unnamed_addr constant [8 x i8] c"\0A\09s1 = \00", align 1
@.str.61 = private unnamed_addr constant [7 x i8] c"\09s1'= \00", align 1
@.str.62 = private unnamed_addr constant [34 x i8] c"                  Sensitivity 2  \00", align 1
@.str.63 = private unnamed_addr constant [8 x i8] c"\0A\09s2 = \00", align 1
@.str.64 = private unnamed_addr constant [7 x i8] c"\09s2'= \00", align 1
@.str.65 = private unnamed_addr constant [34 x i8] c"                  Sensitivity 3  \00", align 1
@.str.66 = private unnamed_addr constant [8 x i8] c"\0A\09s3 = \00", align 1
@.str.67 = private unnamed_addr constant [7 x i8] c"\09s3'= \00", align 1

; Function Attrs: nounwind uwtable
define internal void @PrintSensIC(ptr noundef %0, ptr noundef %1, ptr noundef %2, ptr noundef %3) #0 {
  %5 = alloca ptr, align 8
  %6 = alloca ptr, align 8
  %7 = alloca ptr, align 8
  %8 = alloca ptr, align 8
  %9 = alloca ptr, align 8
  store ptr %0, ptr %5, align 8, !tbaa !16
  store ptr %1, ptr %6, align 8, !tbaa !16
  store ptr %2, ptr %7, align 8, !tbaa !18
  store ptr %3, ptr %8, align 8, !tbaa !18
  call void @llvm.lifetime.start.p0(i64 8, ptr %9) #8
  %10 = load ptr, ptr %7, align 8, !tbaa !18
  %11 = getelementptr inbounds ptr, ptr %10, i64 0
  %12 = load ptr, ptr %11, align 8, !tbaa !16
  %13 = call ptr @N_VGetArrayPointer(ptr noundef %12)
  store ptr %13, ptr %9, align 8, !tbaa !39
  %14 = call i32 (ptr, ...) @printf(ptr noundef @.str.59)
  %15 = call i32 (ptr, ...) @printf(ptr noundef @.str.60)
  %16 = load ptr, ptr %9, align 8, !tbaa !39
  %17 = getelementptr inbounds double, ptr %16, i64 0
  %18 = load double, ptr %17, align 8, !tbaa !20
  %19 = load ptr, ptr %9, align 8, !tbaa !39
  %20 = getelementptr inbounds double, ptr %19, i64 1
  %21 = load double, ptr %20, align 8, !tbaa !20
  %22 = load ptr, ptr %9, align 8, !tbaa !39
  %23 = getelementptr inbounds double, ptr %22, i64 2
  %24 = load double, ptr %23, align 8, !tbaa !20
  %25 = call i32 (ptr, ...) @printf(ptr noundef @.str.57, double noundef %18, double noundef %21, double noundef %24)
  %26 = load ptr, ptr %8, align 8, !tbaa !18
  %27 = getelementptr inbounds ptr, ptr %26, i64 0
  %28 = load ptr, ptr %27, align 8, !tbaa !16
  %29 = call ptr @N_VGetArrayPointer(ptr noundef %28)
  store ptr %29, ptr %9, align 8, !tbaa !39
  %30 = call i32 (ptr, ...) @printf(ptr noundef @.str.61)
  %31 = load ptr, ptr %9, align 8, !tbaa !39
  %32 = getelementptr inbounds double, ptr %31, i64 0
  %33 = load double, ptr %32, align 8, !tbaa !20
  %34 = load ptr, ptr %9, align 8, !tbaa !39
  %35 = getelementptr inbounds double, ptr %34, i64 1
  %36 = load double, ptr %35, align 8, !tbaa !20
  %37 = load ptr, ptr %9, align 8, !tbaa !39
  %38 = getelementptr inbounds double, ptr %37, i64 2
  %39 = load double, ptr %38, align 8, !tbaa !20
  %40 = call i32 (ptr, ...) @printf(ptr noundef @.str.57, double noundef %33, double noundef %36, double noundef %39)
  %41 = call i32 (ptr, ...) @printf(ptr noundef @.str.62)
  %42 = load ptr, ptr %7, align 8, !tbaa !18
  %43 = getelementptr inbounds ptr, ptr %42, i64 1
  %44 = load ptr, ptr %43, align 8, !tbaa !16
  %45 = call ptr @N_VGetArrayPointer(ptr noundef %44)
  store ptr %45, ptr %9, align 8, !tbaa !39
  %46 = call i32 (ptr, ...) @printf(ptr noundef @.str.63)
  %47 = load ptr, ptr %9, align 8, !tbaa !39
  %48 = getelementptr inbounds double, ptr %47, i64 0
  %49 = load double, ptr %48, align 8, !tbaa !20
  %50 = load ptr, ptr %9, align 8, !tbaa !39
  %51 = getelementptr inbounds double, ptr %50, i64 1
  %52 = load double, ptr %51, align 8, !tbaa !20
  %53 = load ptr, ptr %9, align 8, !tbaa !39
  %54 = getelementptr inbounds double, ptr %53, i64 2
  %55 = load double, ptr %54, align 8, !tbaa !20
  %56 = call i32 (ptr, ...) @printf(ptr noundef @.str.57, double noundef %49, double noundef %52, double noundef %55)
  %57 = load ptr, ptr %8, align 8, !tbaa !18
  %58 = getelementptr inbounds ptr, ptr %57, i64 1
  %59 = load ptr, ptr %58, align 8, !tbaa !16
  %60 = call ptr @N_VGetArrayPointer(ptr noundef %59)
  store ptr %60, ptr %9, align 8, !tbaa !39
  %61 = call i32 (ptr, ...) @printf(ptr noundef @.str.64)
  %62 = load ptr, ptr %9, align 8, !tbaa !39
  %63 = getelementptr inbounds double, ptr %62, i64 0
  %64 = load double, ptr %63, align 8, !tbaa !20
  %65 = load ptr, ptr %9, align 8, !tbaa !39
  %66 = getelementptr inbounds double, ptr %65, i64 1
  %67 = load double, ptr %66, align 8, !tbaa !20
  %68 = load ptr, ptr %9, align 8, !tbaa !39
  %69 = getelementptr inbounds double, ptr %68, i64 2
  %70 = load double, ptr %69, align 8, !tbaa !20
  %71 = call i32 (ptr, ...) @printf(ptr noundef @.str.57, double noundef %64, double noundef %67, double noundef %70)
  %72 = call i32 (ptr, ...) @printf(ptr noundef @.str.65)
  %73 = load ptr, ptr %7, align 8, !tbaa !18
  %74 = getelementptr inbounds ptr, ptr %73, i64 2
  %75 = load ptr, ptr %74, align 8, !tbaa !16
  %76 = call ptr @N_VGetArrayPointer(ptr noundef %75)
  store ptr %76, ptr %9, align 8, !tbaa !39
  %77 = call i32 (ptr, ...) @printf(ptr noundef @.str.66)
  %78 = load ptr, ptr %9, align 8, !tbaa !39
  %79 = getelementptr inbounds double, ptr %78, i64 0
  %80 = load double, ptr %79, align 8, !tbaa !20
  %81 = load ptr, ptr %9, align 8, !tbaa !39
  %82 = getelementptr inbounds double, ptr %81, i64 1
  %83 = load double, ptr %82, align 8, !tbaa !20
  %84 = load ptr, ptr %9, align 8, !tbaa !39
  %85 = getelementptr inbounds double, ptr %84, i64 2
  %86 = load double, ptr %85, align 8, !tbaa !20
  %87 = call i32 (ptr, ...) @printf(ptr noundef @.str.57, double noundef %80, double noundef %83, double noundef %86)
  %88 = load ptr, ptr %8, align 8, !tbaa !18
  %89 = getelementptr inbounds ptr, ptr %88, i64 2
  %90 = load ptr, ptr %89, align 8, !tbaa !16
  %91 = call ptr @N_VGetArrayPointer(ptr noundef %90)
  store ptr %91, ptr %9, align 8, !tbaa !39
  %92 = call i32 (ptr, ...) @printf(ptr noundef @.str.67)
  %93 = load ptr, ptr %9, align 8, !tbaa !39
  %94 = getelementptr inbounds double, ptr %93, i64 0
  %95 = load double, ptr %94, align 8, !tbaa !20
  %96 = load ptr, ptr %9, align 8, !tbaa !39
  %97 = getelementptr inbounds double, ptr %96, i64 1
  %98 = load double, ptr %97, align 8, !tbaa !20
  %99 = load ptr, ptr %9, align 8, !tbaa !39
  %100 = getelementptr inbounds double, ptr %99, i64 2
  %101 = load double, ptr %100, align 8, !tbaa !20
  %102 = call i32 (ptr, ...) @printf(ptr noundef @.str.57, double noundef %95, double noundef %98, double noundef %101)
  call void @llvm.lifetime.end.p0(i64 8, ptr %9) #8
  ret void
}