; Function Attrs: nounwind uwtable
define internal fastcc void @PrintSensIC(ptr noundef readonly captures(none) %0, ptr noundef readonly captures(none) %1) unnamed_addr #0 {
  %3 = load ptr, ptr %0, align 8, !tbaa !26
  %4 = tail call ptr @N_VGetArrayPointer(ptr noundef %3) #15
  %5 = tail call i32 (ptr, ...) @printf(ptr noundef nonnull dereferenceable(1) @.str.59)
  %6 = tail call i32 (ptr, ...) @printf(ptr noundef nonnull dereferenceable(1) @.str.60)
  %7 = load double, ptr %4, align 8, !tbaa !11
  %8 = getelementptr inbounds nuw i8, ptr %4, i64 8
  %9 = load double, ptr %8, align 8, !tbaa !11
  %10 = getelementptr inbounds nuw i8, ptr %4, i64 16
  %11 = load double, ptr %10, align 8, !tbaa !11
  %12 = tail call i32 (ptr, ...) @printf(ptr noundef nonnull dereferenceable(1) @.str.57, double noundef %7, double noundef %9, double noundef %11)
  %13 = load ptr, ptr %1, align 8, !tbaa !26
  %14 = tail call ptr @N_VGetArrayPointer(ptr noundef %13) #15
  %15 = tail call i32 (ptr, ...) @printf(ptr noundef nonnull dereferenceable(1) @.str.61)
  %16 = load double, ptr %14, align 8, !tbaa !11
  %17 = getelementptr inbounds nuw i8, ptr %14, i64 8
  %18 = load double, ptr %17, align 8, !tbaa !11
  %19 = getelementptr inbounds nuw i8, ptr %14, i64 16
  %20 = load double, ptr %19, align 8, !tbaa !11
  %21 = tail call i32 (ptr, ...) @printf(ptr noundef nonnull dereferenceable(1) @.str.57, double noundef %16, double noundef %18, double noundef %20)
  %22 = tail call i32 (ptr, ...) @printf(ptr noundef nonnull dereferenceable(1) @.str.62)
  %23 = getelementptr inbounds nuw i8, ptr %0, i64 8
  %24 = load ptr, ptr %23, align 8, !tbaa !26
  %25 = tail call ptr @N_VGetArrayPointer(ptr noundef %24) #15
  %26 = tail call i32 (ptr, ...) @printf(ptr noundef nonnull dereferenceable(1) @.str.63)
  %27 = load double, ptr %25, align 8, !tbaa !11
  %28 = getelementptr inbounds nuw i8, ptr %25, i64 8
  %29 = load double, ptr %28, align 8, !tbaa !11
  %30 = getelementptr inbounds nuw i8, ptr %25, i64 16
  %31 = load double, ptr %30, align 8, !tbaa !11
  %32 = tail call i32 (ptr, ...) @printf(ptr noundef nonnull dereferenceable(1) @.str.57, double noundef %27, double noundef %29, double noundef %31)
  %33 = getelementptr inbounds nuw i8, ptr %1, i64 8
  %34 = load ptr, ptr %33, align 8, !tbaa !26
  %35 = tail call ptr @N_VGetArrayPointer(ptr noundef %34) #15
  %36 = tail call i32 (ptr, ...) @printf(ptr noundef nonnull dereferenceable(1) @.str.64)
  %37 = load double, ptr %35, align 8, !tbaa !11
  %38 = getelementptr inbounds nuw i8, ptr %35, i64 8
  %39 = load double, ptr %38, align 8, !tbaa !11
  %40 = getelementptr inbounds nuw i8, ptr %35, i64 16
  %41 = load double, ptr %40, align 8, !tbaa !11
  %42 = tail call i32 (ptr, ...) @printf(ptr noundef nonnull dereferenceable(1) @.str.57, double noundef %37, double noundef %39, double noundef %41)
  %43 = tail call i32 (ptr, ...) @printf(ptr noundef nonnull dereferenceable(1) @.str.65)
  %44 = getelementptr inbounds nuw i8, ptr %0, i64 16
  %45 = load ptr, ptr %44, align 8, !tbaa !26
  %46 = tail call ptr @N_VGetArrayPointer(ptr noundef %45) #15
  %47 = tail call i32 (ptr, ...) @printf(ptr noundef nonnull dereferenceable(1) @.str.66)
  %48 = load double, ptr %46, align 8, !tbaa !11
  %49 = getelementptr inbounds nuw i8, ptr %46, i64 8
  %50 = load double, ptr %49, align 8, !tbaa !11
  %51 = getelementptr inbounds nuw i8, ptr %46, i64 16
  %52 = load double, ptr %51, align 8, !tbaa !11
  %53 = tail call i32 (ptr, ...) @printf(ptr noundef nonnull dereferenceable(1) @.str.57, double noundef %48, double noundef %50, double noundef %52)
  %54 = getelementptr inbounds nuw i8, ptr %1, i64 16
  %55 = load ptr, ptr %54, align 8, !tbaa !26
  %56 = tail call ptr @N_VGetArrayPointer(ptr noundef %55) #15
  %57 = tail call i32 (ptr, ...) @printf(ptr noundef nonnull dereferenceable(1) @.str.67)
  %58 = load double, ptr %56, align 8, !tbaa !11
  %59 = getelementptr inbounds nuw i8, ptr %56, i64 8
  %60 = load double, ptr %59, align 8, !tbaa !11
  %61 = getelementptr inbounds nuw i8, ptr %56, i64 16
  %62 = load double, ptr %61, align 8, !tbaa !11
  %63 = tail call i32 (ptr, ...) @printf(ptr noundef nonnull dereferenceable(1) @.str.57, double noundef %58, double noundef %60, double noundef %62)
  ret void
}